target datalayout = "e-m:e-p270:32:32-p271:32:32-p272:64:64-i64:64-i128:128-f80:128-n8:16:32:64-S128"
target triple = "x86_64-pc-linux-gnu"

%"struct.cv::CvCaptureCAM_V4L" = type <{ %"class.cv::IVideoCapture", i32, i8, i8, [2 x i8], i32, i8, [3 x i8], %"class.std::__cxx11::basic_string", %"class.cv::Mat", i32, i32, i32, i32, i32, i32, i32, i8, i8, [2 x i8], i32, i8, [3 x i8], [11 x %"struct.cv::Buffer"], %struct.v4l2_capability, %struct.v4l2_input, %struct.v4l2_format, %struct.v4l2_requestbuffers, i32, i8, [7 x i8], %struct.timeval, i8, [7 x i8] }>
%"class.cv::IVideoCapture" = type { ptr }
%"class.std::__cxx11::basic_string" = type { %"struct.std::__cxx11::basic_string<char>::_Alloc_hider", i64, %union.anon }
%"struct.std::__cxx11::basic_string<char>::_Alloc_hider" = type { ptr }
%union.anon = type { i64, [8 x i8] }
%"class.cv::Mat" = type { i32, i32, i32, i32, ptr, ptr, ptr, ptr, ptr, ptr, %"struct.cv::MatSize", %"struct.cv::MatStep" }
%"struct.cv::MatSize" = type { ptr }
%"struct.cv::MatStep" = type { ptr, [2 x i64] }
%"struct.cv::Buffer" = type { [8 x %"struct.cv::Memory"], [8 x %struct.v4l2_plane], i32, %struct.v4l2_buffer }
%"struct.cv::Memory" = type { ptr, i64 }
%struct.v4l2_plane = type { i32, i32, %union.anon.0, i32, [11 x i32] }
%union.anon.0 = type { i64 }
%struct.v4l2_buffer = type { i32, i32, i32, i32, i32, %struct.timeval, %struct.v4l2_timecode, i32, i32, %union.anon.1, i32, i32, %union.anon.2 }
%struct.v4l2_timecode = type { i32, i32, i8, i8, i8, i8, [4 x i8] }
%union.anon.1 = type { i64 }
%union.anon.2 = type { i32 }
%struct.v4l2_capability = type { [16 x i8], [32 x i8], [32 x i8], i32, i32, i32, [3 x i32] }
%struct.v4l2_input = type { i32, [32 x i8], i32, i32, i32, i64, i32, i32, [3 x i32] }
%struct.v4l2_format = type { i32, %union.anon.3 }
%union.anon.3 = type { %struct.v4l2_window, [144 x i8] }
%struct.v4l2_window = type { %struct.v4l2_rect, i32, i32, ptr, i32, ptr, i8 }
%struct.v4l2_rect = type { i32, i32, i32, i32 }
%struct.v4l2_requestbuffers = type { i32, i32, i32, i32, [1 x i32] }
%struct.timeval = type { i64, i64 }
%struct.v4l2_pix_format_mplane = type { i32, i32, i32, i32, i32, [8 x %struct.v4l2_plane_pix_format], i8, i8, %union.anon.5, i8, i8, [7 x i8] }
%struct.v4l2_plane_pix_format = type { i32, i32, [6 x i16] }
%union.anon.5 = type { i8 }
%struct.v4l2_pix_format = type { i32, i32, i32, i32, i32, i32, i32, i32, i32, %union.anon.4, i32, i32 }
%union.anon.4 = type { i32 }

; Function Attrs: mustprogress uwtable
define hidden noundef zeroext i1 @_ZN2cv16CvCaptureCAM_V4L16try_palette_v4l2Ev(ptr noundef nonnull align 8 dereferenceable(8736) %0) #4 align 2 {
  %2 = alloca i1, align 1
  %3 = alloca ptr, align 8
  %4 = alloca %struct.v4l2_format, align 8
  store ptr %0, ptr %3, align 8, !tbaa !3
  %5 = load ptr, ptr %3, align 8
  call void @llvm.lifetime.start.p0(i64 208, ptr %4) #3
  call void @llvm.memset.p0.i64(ptr align 8 %4, i8 0, i64 208, i1 false)
  %6 = getelementptr inbounds nuw %"struct.cv::CvCaptureCAM_V4L", ptr %5, i32 0, i32 26
  call void @llvm.memcpy.p0.p0.i64(ptr align 8 %6, ptr align 8 %4, i64 208, i1 false), !tbaa.struct !82
  call void @llvm.lifetime.end.p0(i64 208, ptr %4) #3
  %7 = getelementptr inbounds nuw %"struct.cv::CvCaptureCAM_V4L", ptr %5, i32 0, i32 28
  %8 = load i32, ptr %7, align 4, !tbaa !48
  %9 = getelementptr inbounds nuw %"struct.cv::CvCaptureCAM_V4L", ptr %5, i32 0, i32 26
  %10 = getelementptr inbounds nuw %struct.v4l2_format, ptr %9, i32 0, i32 0
  store i32 %8, ptr %10, align 8, !tbaa !83
  %11 = getelementptr inbounds nuw %"struct.cv::CvCaptureCAM_V4L", ptr %5, i32 0, i32 28
  %12 = load i32, ptr %11, align 4, !tbaa !48
  %13 = icmp eq i32 %12, 9
  br i1 %13, label %18, label %14

14:                                               ; preds = %1
  %15 = getelementptr inbounds nuw %"struct.cv::CvCaptureCAM_V4L", ptr %5, i32 0, i32 28
  %16 = load i32, ptr %15, align 4, !tbaa !48
  %17 = icmp eq i32 %16, 10
  br i1 %17, label %18, label %37

18:                                               ; preds = %14, %1
  %19 = getelementptr inbounds nuw %"struct.cv::CvCaptureCAM_V4L", ptr %5, i32 0, i32 10
  %20 = load i32, ptr %19, align 8, !tbaa !37
  %21 = getelementptr inbounds nuw %"struct.cv::CvCaptureCAM_V4L", ptr %5, i32 0, i32 26
  %22 = getelementptr inbounds nuw %struct.v4l2_format, ptr %21, i32 0, i32 1
  %23 = getelementptr inbounds nuw %struct.v4l2_pix_format_mplane, ptr %22, i32 0, i32 2
  store i32 %20, ptr %23, align 8, !tbaa !60
  %24 = getelementptr inbounds nuw %"struct.cv::CvCaptureCAM_V4L", ptr %5, i32 0, i32 26
  %25 = getelementptr inbounds nuw %struct.v4l2_format, ptr %24, i32 0, i32 1
  %26 = getelementptr inbounds nuw %struct.v4l2_pix_format_mplane, ptr %25, i32 0, i32 3
  store i32 0, ptr %26, align 4, !tbaa !60
  %27 = getelementptr inbounds nuw %"struct.cv::CvCaptureCAM_V4L", ptr %5, i32 0, i32 11
  %28 = load i32, ptr %27, align 4, !tbaa !38
  %29 = getelementptr inbounds nuw %"struct.cv::CvCaptureCAM_V4L", ptr %5, i32 0, i32 26
  %30 = getelementptr inbounds nuw %struct.v4l2_format, ptr %29, i32 0, i32 1
  %31 = getelementptr inbounds nuw %struct.v4l2_pix_format_mplane, ptr %30, i32 0, i32 0
  store i32 %28, ptr %31, align 8, !tbaa !60
  %32 = getelementptr inbounds nuw %"struct.cv::CvCaptureCAM_V4L", ptr %5, i32 0, i32 12
  %33 = load i32, ptr %32, align 8, !tbaa !39
  %34 = getelementptr inbounds nuw %"struct.cv::CvCaptureCAM_V4L", ptr %5, i32 0, i32 26
  %35 = getelementptr inbounds nuw %struct.v4l2_format, ptr %34, i32 0, i32 1
  %36 = getelementptr inbounds nuw %struct.v4l2_pix_format_mplane, ptr %35, i32 0, i32 1
  store i32 %33, ptr %36, align 4, !tbaa !60
  br label %56

37:                                               ; preds = %14
  %38 = getelementptr inbounds nuw %"struct.cv::CvCaptureCAM_V4L", ptr %5, i32 0, i32 10
  %39 = load i32, ptr %38, align 8, !tbaa !37
  %40 = getelementptr inbounds nuw %"struct.cv::CvCaptureCAM_V4L", ptr %5, i32 0, i32 26
  %41 = getelementptr inbounds nuw %struct.v4l2_format, ptr %40, i32 0, i32 1
  %42 = getelementptr inbounds nuw %struct.v4l2_pix_format, ptr %41, i32 0, i32 2
  store i32 %39, ptr %42, align 8, !tbaa !60
  %43 = getelementptr inbounds nuw %"struct.cv::CvCaptureCAM_V4L", ptr %5, i32 0, i32 26
  %44 = getelementptr inbounds nuw %struct.v4l2_format, ptr %43, i32 0, i32 1
  %45 = getelementptr inbounds nuw %struct.v4l2_pix_format, ptr %44, i32 0, i32 3
  store i32 0, ptr %45, align 4, !tbaa !60
  %46 = getelementptr inbounds nuw %"struct.cv::CvCaptureCAM_V4L", ptr %5, i32 0, i32 11
  %47 = load i32, ptr %46, align 4, !tbaa !38
  %48 = getelementptr inbounds nuw %"struct.cv::CvCaptureCAM_V4L", ptr %5, i32 0, i32 26
  %49 = getelementptr inbounds nuw %struct.v4l2_format, ptr %48, i32 0, i32 1
  %50 = getelementptr inbounds nuw %struct.v4l2_pix_format, ptr %49, i32 0, i32 0
  store i32 %47, ptr %50, align 8, !tbaa !60
  %51 = getelementptr inbounds nuw %"struct.cv::CvCaptureCAM_V4L", ptr %5, i32 0, i32 12
  %52 = load i32, ptr %51, align 8, !tbaa !39
  %53 = getelementptr inbounds nuw %"struct.cv::CvCaptureCAM_V4L", ptr %5, i32 0, i32 26
  %54 = getelementptr inbounds nuw %struct.v4l2_format, ptr %53, i32 0, i32 1
  %55 = getelementptr inbounds nuw %struct.v4l2_pix_format, ptr %54, i32 0, i32 1
  store i32 %52, ptr %55, align 4, !tbaa !60
  br label %56

56:                                               ; preds = %37, %18
  %57 = getelementptr inbounds nuw %"struct.cv::CvCaptureCAM_V4L", ptr %5, i32 0, i32 26
  %58 = call noundef zeroext i1 @_ZNK2cv16CvCaptureCAM_V4L8tryIoctlEmPvbi(ptr noundef nonnull align 8 dereferenceable(8736) %5, i64 noundef 3234878981, ptr noundef %57, i1 noundef zeroext true, i32 noundef 10)
  br i1 %58, label %60, label %59

59:                                               ; preds = %56
  store i1 false, ptr %2, align 1
  br label %84

60:                                               ; preds = %56
  %61 = getelementptr inbounds nuw %"struct.cv::CvCaptureCAM_V4L", ptr %5, i32 0, i32 28
  %62 = load i32, ptr %61, align 4, !tbaa !48
  %63 = icmp eq i32 %62, 9
  br i1 %63, label %68, label %64

64:                                               ; preds = %60
  %65 = getelementptr inbounds nuw %"struct.cv::CvCaptureCAM_V4L", ptr %5, i32 0, i32 28
  %66 = load i32, ptr %65, align 4, !tbaa !48
  %67 = icmp eq i32 %66, 10
  br i1 %67, label %68, label %76

68:                                               ; preds = %64, %60
  %69 = getelementptr inbounds nuw %"struct.cv::CvCaptureCAM_V4L", ptr %5, i32 0, i32 10
  %70 = load i32, ptr %69, align 8, !tbaa !37
  %71 = getelementptr inbounds nuw %"struct.cv::CvCaptureCAM_V4L", ptr %5, i32 0, i32 26
  %72 = getelementptr inbounds nuw %struct.v4l2_format, ptr %71, i32 0, i32 1
  %73 = getelementptr inbounds nuw %struct.v4l2_pix_format_mplane, ptr %72, i32 0, i32 2
  %74 = load i32, ptr %73, align 8, !tbaa !60
  %75 = icmp eq i32 %70, %74
  store i1 %75, ptr %2, align 1
  br label %84

76:                                               ; preds = %64
  %77 = getelementptr inbounds nuw %"struct.cv::CvCaptureCAM_V4L", ptr %5, i32 0, i32 10
  %78 = load i32, ptr %77, align 8, !tbaa !37
  %79 = getelementptr inbounds nuw %"struct.cv::CvCaptureCAM_V4L", ptr %5, i32 0, i32 26
  %80 = getelementptr inbounds nuw %struct.v4l2_format, ptr %79, i32 0, i32 1
  %81 = getelementptr inbounds nuw %struct.v4l2_pix_format, ptr %80, i32 0, i32 2
  %82 = load i32, ptr %81, align 8, !tbaa !60
  %83 = icmp eq i32 %78, %82
  store i1 %83, ptr %2, align 1
  br label %84

84:                                               ; preds = %76, %68, %59
  %85 = load i1, ptr %2, align 1
  ret i1 %85
}