; Function Attrs: mustprogress uwtable
define hidden noundef zeroext i1 @_ZN2cv16CvCaptureCAM_V4L16try_palette_v4l2Ev(ptr noundef nonnull align 8 dereferenceable(8736) initializes((8472, 8680)) %0) local_unnamed_addr #5 align 2 {
  %2 = getelementptr inbounds nuw i8, ptr %0, i64 8472
  tail call void @llvm.memset.p0.i64(ptr noundef nonnull align 8 dereferenceable(208) %2, i8 0, i64 208, i1 false)
  %3 = getelementptr inbounds nuw i8, ptr %0, i64 8700
  %4 = load i32, ptr %3, align 4, !tbaa !44
  store i32 %4, ptr %2, align 8, !tbaa !108
  %.sink.in = getelementptr inbounds nuw i8, ptr %0, i64 160
  %.sink = load i32, ptr %.sink.in, align 8, !tbaa !109
  %.sink6.in = getelementptr inbounds nuw i8, ptr %0, i64 156
  %.sink6 = load i32, ptr %.sink6.in, align 4, !tbaa !110
  %.sink7.in = getelementptr inbounds nuw i8, ptr %0, i64 152
  %.sink7 = load i32, ptr %.sink7.in, align 8, !tbaa !111
  %5 = getelementptr inbounds nuw i8, ptr %0, i64 8488
  store i32 %.sink7, ptr %5, align 8, !tbaa !37
  %6 = getelementptr inbounds nuw i8, ptr %0, i64 8492
  store i32 0, ptr %6, align 4, !tbaa !37
  %7 = getelementptr inbounds nuw i8, ptr %0, i64 8480
  store i32 %.sink6, ptr %7, align 8, !tbaa !37
  %8 = getelementptr inbounds nuw i8, ptr %0, i64 8484
  store i32 %.sink, ptr %8, align 4, !tbaa !37
  %9 = tail call noundef zeroext i1 @_ZNK2cv16CvCaptureCAM_V4L8tryIoctlEmPvbi(ptr noundef nonnull align 8 dereferenceable(8736) %0, i64 noundef 3234878981, ptr noundef nonnull %2, i1 noundef zeroext true, i32 noundef 10)
  %10 = getelementptr inbounds nuw i8, ptr %0, i64 152
  %11 = load i32, ptr %10, align 8
  %12 = load i32, ptr %5, align 8
  %13 = icmp eq i32 %11, %12
  %.0 = select i1 %9, i1 %13, i1 false
  ret i1 %.0
}